; Function Attrs: mustprogress nofree norecurse nosync nounwind willreturn memory(argmem: readwrite) uwtable
define void @SSL_SESSION_get0_ticket(ptr noundef readonly captures(none) %0, ptr noundef writeonly captures(address_is_null) %1, ptr noundef writeonly captures(none) initializes((0, 8)) %2) local_unnamed_addr #0 {
  %4 = getelementptr inbounds nuw i8, ptr %0, i64 816
  %5 = load i64, ptr %4, align 8, !tbaa !85
  store i64 %5, ptr %2, align 8, !tbaa !3
  %.not = icmp eq ptr %1, null
  br i1 %.not, label %9, label %6

6:                                                ; preds = %3
  %7 = getelementptr inbounds nuw i8, ptr %0, i64 808
  %8 = load ptr, ptr %7, align 8, !tbaa !84
  store ptr %8, ptr %1, align 8, !tbaa !158
  br label %9

9:                                                ; preds = %6, %3
  ret void
}